target datalayout = "e-m:e-p270:32:32-p271:32:32-p272:64:64-i64:64-i128:128-f80:128-n8:16:32:64-S128"
target triple = "x86_64-pc-linux-gnu"

%union.VALUETYPE = type { [2 x i64], [112 x i8] }
%struct.magic = type { i16, i8, i8, i8, i8, i8, i8, i8, i8, i8, i8, i32, i32, i32, %union.anon, %union.VALUETYPE, [64 x i8], [80 x i8], [8 x i8], [64 x i8] }
%union.anon = type { i64 }

; Function Attrs: nounwind uwtable
define internal i32 @cvt_float(ptr noundef %0, ptr noundef %1) #0 {
  %3 = alloca i32, align 4
  %4 = alloca ptr, align 8
  %5 = alloca ptr, align 8
  store ptr %0, ptr %4, align 8
  store ptr %1, ptr %5, align 8
  %6 = load ptr, ptr %5, align 8
  %7 = getelementptr inbounds %struct.magic, ptr %6, i32 0, i32 14
  %8 = load i64, ptr %7, align 8
  %9 = icmp ne i64 %8, 0
  br i1 %9, label %10, label %56

10:                                               ; preds = %2
  %11 = load ptr, ptr %5, align 8
  %12 = getelementptr inbounds %struct.magic, ptr %11, i32 0, i32 8
  %13 = load i8, ptr %12, align 1
  %14 = zext i8 %13 to i32
  %15 = and i32 %14, 7
  switch i32 %15, label %55 [
    i32 3, label %16
    i32 4, label %24
    i32 5, label %32
    i32 6, label %40
  ]

16:                                               ; preds = %10
  %17 = load ptr, ptr %5, align 8
  %18 = getelementptr inbounds %struct.magic, ptr %17, i32 0, i32 14
  %19 = load i64, ptr %18, align 8
  %20 = uitofp i64 %19 to float
  %21 = load ptr, ptr %4, align 8
  %22 = load float, ptr %21, align 8
  %23 = fadd float %22, %20
  store float %23, ptr %21, align 8
  br label %55

24:                                               ; preds = %10
  %25 = load ptr, ptr %5, align 8
  %26 = getelementptr inbounds %struct.magic, ptr %25, i32 0, i32 14
  %27 = load i64, ptr %26, align 8
  %28 = uitofp i64 %27 to float
  %29 = load ptr, ptr %4, align 8
  %30 = load float, ptr %29, align 8
  %31 = fsub float %30, %28
  store float %31, ptr %29, align 8
  br label %55

32:                                               ; preds = %10
  %33 = load ptr, ptr %5, align 8
  %34 = getelementptr inbounds %struct.magic, ptr %33, i32 0, i32 14
  %35 = load i64, ptr %34, align 8
  %36 = uitofp i64 %35 to float
  %37 = load ptr, ptr %4, align 8
  %38 = load float, ptr %37, align 8
  %39 = fmul float %38, %36
  store float %39, ptr %37, align 8
  br label %55

40:                                               ; preds = %10
  %41 = load ptr, ptr %5, align 8
  %42 = getelementptr inbounds %struct.magic, ptr %41, i32 0, i32 14
  %43 = load i64, ptr %42, align 8
  %44 = uitofp i64 %43 to float
  %45 = fcmp oeq float %44, 0.000000e+00
  br i1 %45, label %46, label %47

46:                                               ; preds = %40
  store i32 -1, ptr %3, align 4
  br label %57

47:                                               ; preds = %40
  %48 = load ptr, ptr %5, align 8
  %49 = getelementptr inbounds %struct.magic, ptr %48, i32 0, i32 14
  %50 = load i64, ptr %49, align 8
  %51 = uitofp i64 %50 to float
  %52 = load ptr, ptr %4, align 8
  %53 = load float, ptr %52, align 8
  %54 = fdiv float %53, %51
  store float %54, ptr %52, align 8
  br label %55

55:                                               ; preds = %47, %32, %24, %16, %10
  br label %56

56:                                               ; preds = %55, %2
  store i32 0, ptr %3, align 4
  br label %57

57:                                               ; preds = %56, %46
  %58 = load i32, ptr %3, align 4
  ret i32 %58
}