; Function Attrs: mustprogress nofree norecurse nosync nounwind willreturn memory(argmem: readwrite) uwtable
define internal fastcc noundef i32 @cvt_float(ptr nocapture noundef %0, ptr nocapture noundef readonly %1) unnamed_addr #11 {
  %3 = getelementptr inbounds i8, ptr %1, i64 24
  %4 = load i64, ptr %3, align 8
  %.not = icmp eq i64 %4, 0
  br i1 %.not, label %25, label %5

5:                                                ; preds = %2
  %6 = getelementptr inbounds i8, ptr %1, i64 9
  %7 = load i8, ptr %6, align 1
  %8 = and i8 %7, 7
  switch i8 %8, label %25 [
    i8 3, label %9
    i8 4, label %13
    i8 5, label %17
    i8 6, label %21
  ]

9:                                                ; preds = %5
  %10 = uitofp i64 %4 to float
  %11 = load float, ptr %0, align 8
  %12 = fadd float %11, %10
  br label %.sink.split

13:                                               ; preds = %5
  %14 = uitofp i64 %4 to float
  %15 = load float, ptr %0, align 8
  %16 = fsub float %15, %14
  br label %.sink.split

17:                                               ; preds = %5
  %18 = uitofp i64 %4 to float
  %19 = load float, ptr %0, align 8
  %20 = fmul float %19, %18
  br label %.sink.split

21:                                               ; preds = %5
  %22 = uitofp i64 %4 to float
  %23 = load float, ptr %0, align 8
  %24 = fdiv float %23, %22
  br label %.sink.split

.sink.split:                                      ; preds = %9, %13, %17, %21
  %.sink = phi float [ %24, %21 ], [ %20, %17 ], [ %16, %13 ], [ %12, %9 ]
  store float %.sink, ptr %0, align 8
  br label %25

25:                                               ; preds = %.sink.split, %2, %5
  ret i32 0
}